target datalayout = "e-m:e-p270:32:32-p271:32:32-p272:64:64-i64:64-i128:128-f80:128-n8:16:32:64-S128"
target triple = "x86_64-unknown-linux-gnu"

%struct.rsa_meth_st = type { %struct.openssl_method_common_st, ptr, ptr, ptr, ptr, ptr, ptr, ptr, ptr, ptr, ptr, ptr, ptr, ptr, i32, ptr, ptr, ptr }
%struct.openssl_method_common_st = type { i32, i8 }
%struct.rsa_st = type { ptr, ptr, ptr, ptr, ptr, ptr, ptr, ptr, ptr, ptr, %struct.crypto_ex_data_st, i32, i32, %union.crypto_mutex_st, ptr, ptr, ptr, i32, ptr, ptr }
%struct.crypto_ex_data_st = type { ptr }
%union.crypto_mutex_st = type { double, [48 x i8] }

; Function Attrs: nounwind uwtable
define hidden i32 @RSA_private_transform(ptr noundef %rsa, ptr noundef %out, ptr noundef %in, i64 noundef %len) #0 {
entry:
  %retval = alloca i32, align 4
  %rsa.addr = alloca ptr, align 8
  %out.addr = alloca ptr, align 8
  %in.addr = alloca ptr, align 8
  %len.addr = alloca i64, align 8
  store ptr %rsa, ptr %rsa.addr, align 8
  store ptr %out, ptr %out.addr, align 8
  store ptr %in, ptr %in.addr, align 8
  store i64 %len, ptr %len.addr, align 8
  %0 = load ptr, ptr %rsa.addr, align 8
  %meth = getelementptr inbounds %struct.rsa_st, ptr %0, i32 0, i32 0
  %1 = load ptr, ptr %meth, align 8
  %private_transform = getelementptr inbounds %struct.rsa_meth_st, ptr %1, i32 0, i32 11
  %2 = load ptr, ptr %private_transform, align 8
  %tobool = icmp ne ptr %2, null
  br i1 %tobool, label %if.then, label %if.end

if.then:                                          ; preds = %entry
  %3 = load ptr, ptr %rsa.addr, align 8
  %meth1 = getelementptr inbounds %struct.rsa_st, ptr %3, i32 0, i32 0
  %4 = load ptr, ptr %meth1, align 8
  %private_transform2 = getelementptr inbounds %struct.rsa_meth_st, ptr %4, i32 0, i32 11
  %5 = load ptr, ptr %private_transform2, align 8
  %6 = load ptr, ptr %rsa.addr, align 8
  %7 = load ptr, ptr %out.addr, align 8
  %8 = load ptr, ptr %in.addr, align 8
  %9 = load i64, ptr %len.addr, align 8
  %call = call i32 %5(ptr noundef %6, ptr noundef %7, ptr noundef %8, i64 noundef %9)
  store i32 %call, ptr %retval, align 4
  br label %return

if.end:                                           ; preds = %entry
  %10 = load ptr, ptr %rsa.addr, align 8
  %11 = load ptr, ptr %out.addr, align 8
  %12 = load ptr, ptr %in.addr, align 8
  %13 = load i64, ptr %len.addr, align 8
  %call3 = call i32 @rsa_default_private_transform(ptr noundef %10, ptr noundef %11, ptr noundef %12, i64 noundef %13)
  store i32 %call3, ptr %retval, align 4
  br label %return

return:                                           ; preds = %if.end, %if.then
  %14 = load i32, ptr %retval, align 4
  ret i32 %14
}